target datalayout = "e-m:e-p270:32:32-p271:32:32-p272:64:64-i64:64-i128:128-f80:128-n8:16:32:64-S128"
target triple = "x86_64-pc-linux-gnu"

%"struct.vcpkg::msg::MessageT" = type { i64 }
%"struct.vcpkg::msg::triplet_t" = type { i8 }
%"struct.vcpkg::msg::MessageT.330" = type { i64 }
%"struct.vcpkg::StringView" = type { ptr, i64 }
%"struct.vcpkg::msg::TagArg.288" = type { %"struct.vcpkg::StringView" }
%"struct.vcpkg::BuildResultCounts" = type { i32, i32, i32, i32, i32, i32, i32, i32, i32 }

@_ZN5vcpkg3msgL7tripletE = internal constant %"struct.vcpkg::msg::triplet_t" undef, align 1
@_ZN5vcpkg27msgBuildResultSummaryHeaderE = external global %"struct.vcpkg::msg::MessageT.330", align 8
@_ZN5vcpkg23msgBuildResultSucceededE = external global %"struct.vcpkg::msg::MessageT", align 8
@_ZN5vcpkg25msgBuildResultBuildFailedE = external global %"struct.vcpkg::msg::MessageT", align 8
@_ZN5vcpkg35msgBuildResultPostBuildChecksFailedE = external global %"struct.vcpkg::msg::MessageT", align 8
@_ZN5vcpkg27msgBuildResultFileConflictsE = external global %"struct.vcpkg::msg::MessageT", align 8
@_ZN5vcpkg45msgBuildResultCascadeDueToMissingDependenciesE = external global %"struct.vcpkg::msg::MessageT", align 8
@_ZN5vcpkg22msgBuildResultExcludedE = external global %"struct.vcpkg::msg::MessageT", align 8
@_ZN5vcpkg26msgBuildResultCacheMissingE = external global %"struct.vcpkg::msg::MessageT", align 8
@_ZN5vcpkg24msgBuildResultDownloadedE = external global %"struct.vcpkg::msg::MessageT", align 8
@_ZN5vcpkg21msgBuildResultRemovedE = external global %"struct.vcpkg::msg::MessageT", align 8

; Function Attrs: mustprogress uwtable
define linkonce_odr dso_local { ptr, i64 } @_ZNK5vcpkg7TripletcvNS_10StringViewEEv(ptr noundef nonnull align 8 dereferenceable(8) %0) #0 comdat align 2 {
  %2 = alloca %"struct.vcpkg::StringView", align 8
  %3 = alloca ptr, align 8
  store ptr %0, ptr %3, align 8
  %4 = load ptr, ptr %3, align 8
  %5 = call noundef nonnull align 8 dereferenceable(32) ptr @_ZNK5vcpkg7Triplet14canonical_nameB5cxx11Ev(ptr noundef nonnull align 8 dereferenceable(8) %4)
  call void @_ZN5vcpkg10StringViewC1ERKNSt7__cxx1112basic_stringIcSt11char_traitsIcESaIcEEE(ptr noundef nonnull align 8 dereferenceable(16) %2, ptr noundef nonnull align 8 dereferenceable(32) %5) #8
  %6 = load { ptr, i64 }, ptr %2, align 8
  ret { ptr, i64 } %6
}

; Function Attrs: mustprogress nounwind uwtable
define linkonce_odr dso_local { ptr, i64 } @_ZNK5vcpkg3msg9triplet_taSINS_7TripletEEENS0_6TagArgIS1_NSt11conditionalIXsr3std16is_constructibleINS_10StringViewET_EE5valueES6_S7_E4typeEEERKS7_(ptr noundef nonnull align 1 dereferenceable(1) %0, ptr noundef nonnull align 8 dereferenceable(8) %1) #4 comdat align 2 personality ptr @__gxx_personality_v0 {
  %3 = alloca %"struct.vcpkg::msg::TagArg.288", align 8
  %4 = alloca ptr, align 8
  %5 = alloca ptr, align 8
  store ptr %0, ptr %4, align 8
  store ptr %1, ptr %5, align 8
  %6 = getelementptr inbounds %"struct.vcpkg::msg::TagArg.288", ptr %3, i32 0, i32 0
  %7 = load ptr, ptr %5, align 8
  %8 = invoke { ptr, i64 } @_ZNK5vcpkg7TripletcvNS_10StringViewEEv(ptr noundef nonnull align 8 dereferenceable(8) %7)
          to label %9 unwind label %16

9:                                                ; preds = %2
  %10 = getelementptr inbounds { ptr, i64 }, ptr %6, i32 0, i32 0
  %11 = extractvalue { ptr, i64 } %8, 0
  store ptr %11, ptr %10, align 8
  %12 = getelementptr inbounds { ptr, i64 }, ptr %6, i32 0, i32 1
  %13 = extractvalue { ptr, i64 } %8, 1
  store i64 %13, ptr %12, align 8
  %14 = getelementptr inbounds %"struct.vcpkg::msg::TagArg.288", ptr %3, i32 0, i32 0
  %15 = load { ptr, i64 }, ptr %14, align 8
  ret { ptr, i64 } %15

16:                                               ; preds = %2
  %17 = landingpad { ptr, i32 }
          catch ptr null
  %18 = extractvalue { ptr, i32 } %17, 0
  call void @__clang_call_terminate(ptr %18) #21
  unreachable
}

; Function Attrs: mustprogress uwtable
define dso_local void @_ZNK5vcpkg17BuildResultCounts7printlnERKNS_7TripletE(ptr noundef nonnull align 4 dereferenceable(36) %0, ptr noundef nonnull align 8 dereferenceable(8) %1) #0 align 2 {
  %3 = alloca ptr, align 8
  %4 = alloca ptr, align 8
  %5 = alloca %"struct.vcpkg::msg::MessageT.330", align 8
  %6 = alloca %"struct.vcpkg::msg::TagArg.288", align 8
  %7 = alloca %"struct.vcpkg::msg::MessageT", align 8
  %8 = alloca %"struct.vcpkg::msg::MessageT", align 8
  %9 = alloca %"struct.vcpkg::msg::MessageT", align 8
  %10 = alloca %"struct.vcpkg::msg::MessageT", align 8
  %11 = alloca %"struct.vcpkg::msg::MessageT", align 8
  %12 = alloca %"struct.vcpkg::msg::MessageT", align 8
  %13 = alloca %"struct.vcpkg::msg::MessageT", align 8
  %14 = alloca %"struct.vcpkg::msg::MessageT", align 8
  %15 = alloca %"struct.vcpkg::msg::MessageT", align 8
  store ptr %0, ptr %3, align 8
  store ptr %1, ptr %4, align 8
  %16 = load ptr, ptr %3, align 8
  call void @llvm.memcpy.p0.p0.i64(ptr align 8 %5, ptr align 8 @_ZN5vcpkg27msgBuildResultSummaryHeaderE, i64 8, i1 false)
  %17 = load ptr, ptr %4, align 8
  %18 = call { ptr, i64 } @_ZNK5vcpkg3msg9triplet_taSINS_7TripletEEENS0_6TagArgIS1_NSt11conditionalIXsr3std16is_constructibleINS_10StringViewET_EE5valueES6_S7_E4typeEEERKS7_(ptr noundef nonnull align 1 dereferenceable(1) @_ZN5vcpkg3msgL7tripletE, ptr noundef nonnull align 8 dereferenceable(8) %17) #8
  %19 = getelementptr inbounds %"struct.vcpkg::msg::TagArg.288", ptr %6, i32 0, i32 0
  %20 = getelementptr inbounds { ptr, i64 }, ptr %19, i32 0, i32 0
  %21 = extractvalue { ptr, i64 } %18, 0
  store ptr %21, ptr %20, align 8
  %22 = getelementptr inbounds { ptr, i64 }, ptr %19, i32 0, i32 1
  %23 = extractvalue { ptr, i64 } %18, 1
  store i64 %23, ptr %22, align 8
  %24 = getelementptr inbounds %"struct.vcpkg::msg::MessageT.330", ptr %5, i32 0, i32 0
  %25 = load i64, ptr %24, align 8
  %26 = getelementptr inbounds { ptr, i64 }, ptr %6, i32 0, i32 0
  %27 = load ptr, ptr %26, align 8
  %28 = getelementptr inbounds { ptr, i64 }, ptr %6, i32 0, i32 1
  %29 = load i64, ptr %28, align 8
  call void @_ZN5vcpkg3msg7printlnIJNS0_9triplet_tEEJNS_10StringViewEEEEvNS0_8MessageTIJDpT_EEEDpNS0_6TagArgINS_8identityIS5_E4typeET0_EE(i64 %25, ptr %27, i64 %29)
  call void @llvm.memcpy.p0.p0.i64(ptr align 8 %7, ptr align 8 @_ZN5vcpkg23msgBuildResultSucceededE, i64 8, i1 false)
  %30 = getelementptr inbounds %"struct.vcpkg::BuildResultCounts", ptr %16, i32 0, i32 0
  %31 = load i32, ptr %30, align 4
  %32 = getelementptr inbounds %"struct.vcpkg::msg::MessageT", ptr %7, i32 0, i32 0
  %33 = load i64, ptr %32, align 8
  call void @_ZN5vcpkgL31print_build_result_summary_lineINS_3msg8MessageTIJEEEEEvT_i(i64 %33, i32 noundef %31)
  call void @llvm.memcpy.p0.p0.i64(ptr align 8 %8, ptr align 8 @_ZN5vcpkg25msgBuildResultBuildFailedE, i64 8, i1 false)
  %34 = getelementptr inbounds %"struct.vcpkg::BuildResultCounts", ptr %16, i32 0, i32 1
  %35 = load i32, ptr %34, align 4
  %36 = getelementptr inbounds %"struct.vcpkg::msg::MessageT", ptr %8, i32 0, i32 0
  %37 = load i64, ptr %36, align 8
  call void @_ZN5vcpkgL31print_build_result_summary_lineINS_3msg8MessageTIJEEEEEvT_i(i64 %37, i32 noundef %35)
  call void @llvm.memcpy.p0.p0.i64(ptr align 8 %9, ptr align 8 @_ZN5vcpkg35msgBuildResultPostBuildChecksFailedE, i64 8, i1 false)
  %38 = getelementptr inbounds %"struct.vcpkg::BuildResultCounts", ptr %16, i32 0, i32 2
  %39 = load i32, ptr %38, align 4
  %40 = getelementptr inbounds %"struct.vcpkg::msg::MessageT", ptr %9, i32 0, i32 0
  %41 = load i64, ptr %40, align 8
  call void @_ZN5vcpkgL31print_build_result_summary_lineINS_3msg8MessageTIJEEEEEvT_i(i64 %41, i32 noundef %39)
  call void @llvm.memcpy.p0.p0.i64(ptr align 8 %10, ptr align 8 @_ZN5vcpkg27msgBuildResultFileConflictsE, i64 8, i1 false)
  %42 = getelementptr inbounds %"struct.vcpkg::BuildResultCounts", ptr %16, i32 0, i32 3
  %43 = load i32, ptr %42, align 4
  %44 = getelementptr inbounds %"struct.vcpkg::msg::MessageT", ptr %10, i32 0, i32 0
  %45 = load i64, ptr %44, align 8
  call void @_ZN5vcpkgL31print_build_result_summary_lineINS_3msg8MessageTIJEEEEEvT_i(i64 %45, i32 noundef %43)
  call void @llvm.memcpy.p0.p0.i64(ptr align 8 %11, ptr align 8 @_ZN5vcpkg45msgBuildResultCascadeDueToMissingDependenciesE, i64 8, i1 false)
  %46 = getelementptr inbounds %"struct.vcpkg::BuildResultCounts", ptr %16, i32 0, i32 4
  %47 = load i32, ptr %46, align 4
  %48 = getelementptr inbounds %"struct.vcpkg::msg::MessageT", ptr %11, i32 0, i32 0
  %49 = load i64, ptr %48, align 8
  call void @_ZN5vcpkgL31print_build_result_summary_lineINS_3msg8MessageTIJEEEEEvT_i(i64 %49, i32 noundef %47)
  call void @llvm.memcpy.p0.p0.i64(ptr align 8 %12, ptr align 8 @_ZN5vcpkg22msgBuildResultExcludedE, i64 8, i1 false)
  %50 = getelementptr inbounds %"struct.vcpkg::BuildResultCounts", ptr %16, i32 0, i32 5
  %51 = load i32, ptr %50, align 4
  %52 = getelementptr inbounds %"struct.vcpkg::msg::MessageT", ptr %12, i32 0, i32 0
  %53 = load i64, ptr %52, align 8
  call void @_ZN5vcpkgL31print_build_result_summary_lineINS_3msg8MessageTIJEEEEEvT_i(i64 %53, i32 noundef %51)
  call void @llvm.memcpy.p0.p0.i64(ptr align 8 %13, ptr align 8 @_ZN5vcpkg26msgBuildResultCacheMissingE, i64 8, i1 false)
  %54 = getelementptr inbounds %"struct.vcpkg::BuildResultCounts", ptr %16, i32 0, i32 6
  %55 = load i32, ptr %54, align 4
  %56 = getelementptr inbounds %"struct.vcpkg::msg::MessageT", ptr %13, i32 0, i32 0
  %57 = load i64, ptr %56, align 8
  call void @_ZN5vcpkgL31print_build_result_summary_lineINS_3msg8MessageTIJEEEEEvT_i(i64 %57, i32 noundef %55)
  call void @llvm.memcpy.p0.p0.i64(ptr align 8 %14, ptr align 8 @_ZN5vcpkg24msgBuildResultDownloadedE, i64 8, i1 false)
  %58 = getelementptr inbounds %"struct.vcpkg::BuildResultCounts", ptr %16, i32 0, i32 7
  %59 = load i32, ptr %58, align 4
  %60 = getelementptr inbounds %"struct.vcpkg::msg::MessageT", ptr %14, i32 0, i32 0
  %61 = load i64, ptr %60, align 8
  call void @_ZN5vcpkgL31print_build_result_summary_lineINS_3msg8MessageTIJEEEEEvT_i(i64 %61, i32 noundef %59)
  call void @llvm.memcpy.p0.p0.i64(ptr align 8 %15, ptr align 8 @_ZN5vcpkg21msgBuildResultRemovedE, i64 8, i1 false)
  %62 = getelementptr inbounds %"struct.vcpkg::BuildResultCounts", ptr %16, i32 0, i32 8
  %63 = load i32, ptr %62, align 4
  %64 = getelementptr inbounds %"struct.vcpkg::msg::MessageT", ptr %15, i32 0, i32 0
  %65 = load i64, ptr %64, align 8
  call void @_ZN5vcpkgL31print_build_result_summary_lineINS_3msg8MessageTIJEEEEEvT_i(i64 %65, i32 noundef %63)
  ret void
}