; Function Attrs: mustprogress uwtable
define dso_local void @_ZNK5vcpkg17BuildResultCounts7printlnERKNS_7TripletE(ptr nocapture noundef nonnull readonly align 4 dereferenceable(36) %0, ptr noundef nonnull align 8 dereferenceable(8) %1) local_unnamed_addr #2 align 2 personality ptr @__gxx_personality_v0 {
  %3 = alloca %"struct.vcpkg::StringView", align 8
  %.sroa.010.0.copyload = load i64, ptr @_ZN5vcpkg27msgBuildResultSummaryHeaderE, align 8
  call void @llvm.lifetime.start.p0(i64 16, ptr nonnull %3)
  %4 = invoke noundef nonnull align 8 dereferenceable(32) ptr @_ZNK5vcpkg7Triplet14canonical_nameB5cxx11Ev(ptr noundef nonnull align 8 dereferenceable(8) %1)
          to label %_ZNK5vcpkg3msg9triplet_taSINS_7TripletEEENS0_6TagArgIS1_NSt11conditionalIXsr3std16is_constructibleINS_10StringViewET_EE5valueES6_S7_E4typeEEERKS7_.exit unwind label %5

5:                                                ; preds = %2
  %6 = landingpad { ptr, i32 }
          catch ptr null
  %7 = extractvalue { ptr, i32 } %6, 0
  tail call void @__clang_call_terminate(ptr %7) #26
  unreachable

_ZNK5vcpkg3msg9triplet_taSINS_7TripletEEENS0_6TagArgIS1_NSt11conditionalIXsr3std16is_constructibleINS_10StringViewET_EE5valueES6_S7_E4typeEEERKS7_.exit: ; preds = %2
  call void @_ZN5vcpkg10StringViewC1ERKNSt7__cxx1112basic_stringIcSt11char_traitsIcESaIcEEE(ptr noundef nonnull align 8 dereferenceable(16) %3, ptr noundef nonnull align 8 dereferenceable(32) %4) #25
  %.fca.0.load.i.i = load ptr, ptr %3, align 8
  %.fca.1.gep.i.i = getelementptr inbounds i8, ptr %3, i64 8
  %.fca.1.load.i.i = load i64, ptr %.fca.1.gep.i.i, align 8
  call void @llvm.lifetime.end.p0(i64 16, ptr nonnull %3)
  call void @_ZN5vcpkg3msg7printlnIJNS0_9triplet_tEEJNS_10StringViewEEEEvNS0_8MessageTIJDpT_EEEDpNS0_6TagArgINS_8identityIS5_E4typeET0_EE(i64 %.sroa.010.0.copyload, ptr %.fca.0.load.i.i, i64 %.fca.1.load.i.i)
  %.sroa.08.0.copyload = load i64, ptr @_ZN5vcpkg23msgBuildResultSucceededE, align 8
  %8 = load i32, ptr %0, align 4
  call fastcc void @_ZN5vcpkgL31print_build_result_summary_lineINS_3msg8MessageTIJEEEEEvT_i(i64 %.sroa.08.0.copyload, i32 noundef %8)
  %.sroa.07.0.copyload = load i64, ptr @_ZN5vcpkg25msgBuildResultBuildFailedE, align 8
  %9 = getelementptr inbounds i8, ptr %0, i64 4
  %10 = load i32, ptr %9, align 4
  call fastcc void @_ZN5vcpkgL31print_build_result_summary_lineINS_3msg8MessageTIJEEEEEvT_i(i64 %.sroa.07.0.copyload, i32 noundef %10)
  %.sroa.06.0.copyload = load i64, ptr @_ZN5vcpkg35msgBuildResultPostBuildChecksFailedE, align 8
  %11 = getelementptr inbounds i8, ptr %0, i64 8
  %12 = load i32, ptr %11, align 4
  call fastcc void @_ZN5vcpkgL31print_build_result_summary_lineINS_3msg8MessageTIJEEEEEvT_i(i64 %.sroa.06.0.copyload, i32 noundef %12)
  %.sroa.05.0.copyload = load i64, ptr @_ZN5vcpkg27msgBuildResultFileConflictsE, align 8
  %13 = getelementptr inbounds i8, ptr %0, i64 12
  %14 = load i32, ptr %13, align 4
  call fastcc void @_ZN5vcpkgL31print_build_result_summary_lineINS_3msg8MessageTIJEEEEEvT_i(i64 %.sroa.05.0.copyload, i32 noundef %14)
  %.sroa.04.0.copyload = load i64, ptr @_ZN5vcpkg45msgBuildResultCascadeDueToMissingDependenciesE, align 8
  %15 = getelementptr inbounds i8, ptr %0, i64 16
  %16 = load i32, ptr %15, align 4
  call fastcc void @_ZN5vcpkgL31print_build_result_summary_lineINS_3msg8MessageTIJEEEEEvT_i(i64 %.sroa.04.0.copyload, i32 noundef %16)
  %.sroa.03.0.copyload = load i64, ptr @_ZN5vcpkg22msgBuildResultExcludedE, align 8
  %17 = getelementptr inbounds i8, ptr %0, i64 20
  %18 = load i32, ptr %17, align 4
  call fastcc void @_ZN5vcpkgL31print_build_result_summary_lineINS_3msg8MessageTIJEEEEEvT_i(i64 %.sroa.03.0.copyload, i32 noundef %18)
  %.sroa.02.0.copyload = load i64, ptr @_ZN5vcpkg26msgBuildResultCacheMissingE, align 8
  %19 = getelementptr inbounds i8, ptr %0, i64 24
  %20 = load i32, ptr %19, align 4
  call fastcc void @_ZN5vcpkgL31print_build_result_summary_lineINS_3msg8MessageTIJEEEEEvT_i(i64 %.sroa.02.0.copyload, i32 noundef %20)
  %.sroa.01.0.copyload = load i64, ptr @_ZN5vcpkg24msgBuildResultDownloadedE, align 8
  %21 = getelementptr inbounds i8, ptr %0, i64 28
  %22 = load i32, ptr %21, align 4
  call fastcc void @_ZN5vcpkgL31print_build_result_summary_lineINS_3msg8MessageTIJEEEEEvT_i(i64 %.sroa.01.0.copyload, i32 noundef %22)
  %.sroa.0.0.copyload = load i64, ptr @_ZN5vcpkg21msgBuildResultRemovedE, align 8
  %23 = getelementptr inbounds i8, ptr %0, i64 32
  %24 = load i32, ptr %23, align 4
  call fastcc void @_ZN5vcpkgL31print_build_result_summary_lineINS_3msg8MessageTIJEEEEEvT_i(i64 %.sroa.0.0.copyload, i32 noundef %24)
  ret void
}